Certificate:
    Data:
        Version: 3 (0x2)
        Serial Number:
            21:82:60:77:8c:c2:6a:df:6b:c0:fd:39:50:fb:b1:6e
    Signature Algorithm: sha256WithRSAEncryption
        Issuer: CN=RabbitMQ STAGING CA
        Validity
            Not Before: May 28 23:04:35 2019 GMT
            Not After : May 25 23:04:35 2029 GMT
        Subject: CN=joystick.stg
        Subject Public Key Info:
            Public Key Algorithm: rsaEncryption
                Public-Key: (2048 bit)
                Modulus:
                    00:c1:ed:b3:30:76:bb:98:f4:13:81:66:ef:c7:24:
                    b8:07:61:2d:84:c5:a8:6f:2f:72:c3:07:1a:fc:82:
                    6a:66:f9:2c:92:c5:47:64:17:13:8f:26:a4:bc:55:
                    47:08:67:78:0a:7c:a0:9e:aa:c3:26:2f:ae:ee:bb:
                    23:08:89:10:76:8e:35:aa:7a:01:9d:1e:41:ac:6a:
                    03:9d:f7:8d:69:07:2a:82:8a:fb:89:20:66:58:c1:
                    a1:75:5e:02:65:42:b7:27:e5:06:d1:50:76:c6:65:
                    f6:d8:a8:af:d0:c5:12:e1:11:ff:5c:12:cb:00:d7:
                    c3:94:e2:08:d4:d6:9a:51:d0:ad:79:9d:64:cb:da:
                    9d:f5:c7:ec:73:da:47:76:07:bb:7c:70:0e:d8:8b:
                    5e:44:ed:e0:56:f1:01:23:48:c1:b3:29:10:df:f9:
                    9f:e1:c9:b2:57:91:d2:ad:59:e8:36:08:4b:9b:fd:
                    f9:d4:fc:2c:ed:b3:fb:aa:fe:66:11:5f:f4:ba:58:
                    88:4e:29:cf:38:98:d6:f5:ca:cd:e6:e8:fa:5f:63:
                    fd:26:fb:e4:d2:b3:4d:dc:69:d5:43:9d:07:8e:5e:
                    7e:9f:95:ec:e6:a4:b4:6d:a0:1b:53:ce:7c:da:61:
                    44:f0:bb:e0:a0:71:78:38:eb:23:06:77:58:ec:56:
                    02:41
                Exponent: 65537 (0x10001)
        X509v3 extensions:
            X509v3 Basic Constraints: 
                CA:FALSE
            X509v3 Subject Key Identifier: 
                E3:AA:53:48:11:09:94:99:AE:BB:9F:09:7A:50:C0:07:0F:F0:67:59
            X509v3 Authority Key Identifier: 
                keyid:1D:09:28:CE:6E:FC:49:0C:BB:7F:B5:98:72:93:61:14:1E:14:7B:57
                DirName:/CN=RabbitMQ STAGING CA
                serial:A4:EF:1A:E4:EF:14:D6:7F

            X509v3 Extended Key Usage: 
                TLS Web Client Authentication
            X509v3 Key Usage: 
                Digital Signature
    Signature Algorithm: sha256WithRSAEncryption
         7a:5e:51:66:16:c3:85:81:85:e5:af:17:78:af:16:c0:ab:42:
         7a:c3:a4:54:b1:3a:44:bc:6a:a4:32:e9:0f:d7:79:98:5d:8d:
         94:48:30:73:56:0d:68:65:07:03:c6:05:93:96:ff:d9:15:8f:
         0e:35:f9:2d:5e:f4:a9:63:80:37:e1:87:14:82:87:4c:fb:ef:
         67:12:18:3b:23:9a:4c:32:ba:97:1e:f3:4f:4b:d8:b9:eb:51:
         50:8b:a1:bb:26:92:4b:b6:80:b9:0a:29:2e:3b:36:e4:b7:d1:
         71:8c:fc:81:12:b3:75:52:07:cd:04:c0:2b:44:d5:5c:08:9b:
         89:3d:ed:0d:63:13:60:82:f3:80:8e:4a:b8:0c:0c:d4:29:05:
         a9:9e:c9:cf:a2:40:55:eb:82:f8:f0:62:ed:01:9c:37:9b:fd:
         32:c4:e3:ef:ab:87:05:d3:63:bb:ee:71:7e:41:2f:a5:fa:6f:
         66:44:8b:8e:5d:52:b0:5c:4a:1c:ab:ac:a3:9a:08:ab:dd:6b:
         73:ef:72:28:3e:d7:ce:2f:2e:9a:6a:b9:d8:49:c6:b5:cb:ba:
         b3:4e:89:36:58:13:dd:92:e9:13:cc:b2:b9:15:9d:1d:ef:ac:
         d2:af:d7:2a:77:29:3f:37:b1:3f:7f:b2:88:e4:c8:2f:22:52:
         e9:6c:68:5c
-----BEGIN CERTIFICATE-----
MIIDXzCCAkegAwIBAgIQIYJgd4zCat9rwP05UPuxbjANBgkqhkiG9w0BAQsFADAe
MRwwGgYDVQQDDBNSYWJiaXRNUSBTVEFHSU5HIENBMB4XDTE5MDUyODIzMDQzNVoX
DTI5MDUyNTIzMDQzNVowFzEVMBMGA1UEAwwMam95c3RpY2suc3RnMIIBIjANBgkq
hkiG9w0BAQEFAAOCAQ8AMIIBCgKCAQEAwe2zMHa7mPQTgWbvxyS4B2EthMWoby9y
wwca/IJqZvksksVHZBcTjyakvFVHCGd4CnygnqrDJi+u7rsjCIkQdo41qnoBnR5B
rGoDnfeNaQcqgor7iSBmWMGhdV4CZUK3J+UG0VB2xmX22Kiv0MUS4RH/XBLLANfD
lOII1NaaUdCteZ1ky9qd9cfsc9pHdge7fHAO2IteRO3gVvEBI0jBsykQ3/mf4cmy
V5HSrVnoNghLm/351Pws7bP7qv5mEV/0uliITinPOJjW9crN5uj6X2P9Jvvk0rNN
3GnVQ50Hjl5+n5Xs5qS0baAbU8582mFE8LvgoHF4OOsjBndY7FYCQQIDAQABo4Gf
MIGcMAkGA1UdEwQCMAAwHQYDVR0OBBYEFOOqU0gRCZSZrrufCXpQwAcP8GdZME4G
A1UdIwRHMEWAFB0JKM5u/EkMu3+1mHKTYRQeFHtXoSKkIDAeMRwwGgYDVQQDDBNS
YWJiaXRNUSBTVEFHSU5HIENBggkApO8a5O8U1n8wEwYDVR0lBAwwCgYIKwYBBQUH
AwIwCwYDVR0PBAQDAgeAMA0GCSqGSIb3DQEBCwUAA4IBAQB6XlFmFsOFgYXlrxd4
rxbAq0J6w6RUsTpEvGqkMukP13mYXY2USDBzVg1oZQcDxgWTlv/ZFY8ONfktXvSp
Y4A34YcUgodM++9nEhg7I5pMMrqXHvNPS9i561FQi6G7JpJLtoC5CikuOzbkt9Fx
jPyBErN1UgfNBMArRNVcCJuJPe0NYxNggvOAjkq4DAzUKQWpnsnPokBV64L48GLt
AZw3m/0yxOPvq4cF02O77nF+QS+l+m9mRIuOXVKwXEocq6yjmgir3Wtz73IoPtfO
Ly6aarnYSca1y7qzTok2WBPdkukTzLK5FZ0d76zSr9cqdyk/N7E/f7KI5MgvIlLp
bGhc
-----END CERTIFICATE-----
