Certificate:
    Data:
        Version: 3 (0x2)
        Serial Number:
            1d:55:00:a3:a7:40:1d:2d:98:5e:00:25:e8:1b:49:fb
    Signature Algorithm: sha256WithRSAEncryption
        Issuer: CN=RabbitMQ STAGING CA
        Validity
            Not Before: Sep 20 22:29:56 2019 GMT
            Not After : Sep 17 22:29:56 2029 GMT
        Subject: CN=robosign.stg
        Subject Public Key Info:
            Public Key Algorithm: rsaEncryption
                Public-Key: (2048 bit)
                Modulus:
                    00:eb:d7:3e:10:a5:54:39:7d:d3:f6:ed:ae:23:c7:
                    96:fc:c0:f6:e5:ea:95:87:ae:5c:96:1f:61:76:14:
                    eb:cd:ec:62:98:dd:4a:e6:94:5f:38:ef:f8:bc:86:
                    9f:cc:dc:4b:b1:46:2e:0b:05:19:7b:ea:44:93:34:
                    21:24:47:8d:1d:7e:4e:90:58:e3:03:35:9c:4f:a7:
                    0c:e2:80:f0:b2:d1:a8:c0:f8:79:de:12:d7:70:6c:
                    0b:45:9c:c9:c2:9c:04:63:34:1b:2e:f8:87:0b:eb:
                    20:fb:5a:5e:d7:69:3b:28:50:3f:71:b0:42:e3:c9:
                    d4:03:fe:63:82:ac:35:f4:e0:39:2e:67:b0:09:00:
                    50:37:8b:96:e7:ae:1a:9a:2f:db:1f:d2:16:5b:f0:
                    fc:00:e8:c0:33:17:ef:57:91:d8:70:78:fa:eb:3c:
                    23:ce:75:08:9a:82:9a:8a:d3:87:08:64:43:6c:bb:
                    67:68:52:24:c4:6d:11:f4:48:01:5a:8f:a0:51:22:
                    ef:1b:9a:5f:59:de:93:81:46:e6:95:f0:b7:fe:ac:
                    d0:ef:76:e0:c4:89:b9:e5:79:47:8a:2d:dd:5b:22:
                    90:46:34:31:51:82:cd:24:91:f6:ea:3d:ca:5f:97:
                    7c:4a:b9:9b:49:f8:38:22:fd:ef:e8:de:b5:0e:ff:
                    35:f7
                Exponent: 65537 (0x10001)
        X509v3 extensions:
            X509v3 Basic Constraints: 
                CA:FALSE
            X509v3 Subject Key Identifier: 
                1B:FB:85:51:38:51:4F:DA:D4:C9:5B:B8:E1:5B:40:2D:5F:BA:33:19
            X509v3 Authority Key Identifier: 
                keyid:1D:09:28:CE:6E:FC:49:0C:BB:7F:B5:98:72:93:61:14:1E:14:7B:57
                DirName:/CN=RabbitMQ STAGING CA
                serial:A4:EF:1A:E4:EF:14:D6:7F

            X509v3 Extended Key Usage: 
                TLS Web Client Authentication
            X509v3 Key Usage: 
                Digital Signature
    Signature Algorithm: sha256WithRSAEncryption
         19:28:02:4a:f4:34:53:90:a1:fb:17:7b:ca:75:73:63:59:db:
         88:3e:58:60:64:30:85:7f:8a:f1:42:53:eb:20:8a:03:c4:39:
         a3:75:59:84:ce:52:6b:8e:00:93:f8:ef:c9:4f:d9:7e:a5:5f:
         9d:06:40:f3:0b:17:36:0f:8a:d1:36:e5:e0:43:8d:43:a6:d5:
         a8:85:bf:62:ba:b0:c4:85:cb:d2:fb:3c:60:73:a3:39:10:93:
         fa:29:49:5c:1a:7a:af:48:5a:f5:6f:47:61:f5:1b:e2:e3:a4:
         f1:d1:de:76:27:7d:08:69:53:0b:4b:5d:24:e3:b7:e4:27:ce:
         ec:78:85:f1:88:ca:91:15:43:0a:f0:da:75:0a:18:d3:0e:f3:
         30:50:c9:cc:12:6d:66:0d:36:ba:25:5c:88:ec:2b:b8:51:fe:
         d0:e4:fc:f2:30:fd:cf:58:73:a4:40:40:9b:0b:d2:c1:5d:20:
         02:0f:db:7e:ac:fa:b6:59:c4:65:51:ee:78:e6:36:07:07:5f:
         c0:a9:04:14:d8:14:df:36:a3:c5:f6:2e:c2:56:9c:0a:25:d7:
         eb:04:85:d4:71:92:c9:02:6d:45:1a:15:c8:f1:f9:78:09:d1:
         11:7f:bb:f0:5a:51:1f:56:0e:26:75:31:40:eb:7f:81:fc:b6:
         3e:0a:28:71
-----BEGIN CERTIFICATE-----
MIIDXzCCAkegAwIBAgIQHVUAo6dAHS2YXgAl6BtJ+zANBgkqhkiG9w0BAQsFADAe
MRwwGgYDVQQDDBNSYWJiaXRNUSBTVEFHSU5HIENBMB4XDTE5MDkyMDIyMjk1NloX
DTI5MDkxNzIyMjk1NlowFzEVMBMGA1UEAwwMcm9ib3NpZ24uc3RnMIIBIjANBgkq
hkiG9w0BAQEFAAOCAQ8AMIIBCgKCAQEA69c+EKVUOX3T9u2uI8eW/MD25eqVh65c
lh9hdhTrzeximN1K5pRfOO/4vIafzNxLsUYuCwUZe+pEkzQhJEeNHX5OkFjjAzWc
T6cM4oDwstGowPh53hLXcGwLRZzJwpwEYzQbLviHC+sg+1pe12k7KFA/cbBC48nU
A/5jgqw19OA5LmewCQBQN4uW564ami/bH9IWW/D8AOjAMxfvV5HYcHj66zwjznUI
moKaitOHCGRDbLtnaFIkxG0R9EgBWo+gUSLvG5pfWd6TgUbmlfC3/qzQ73bgxIm5
5XlHii3dWyKQRjQxUYLNJJH26j3KX5d8SrmbSfg4Iv3v6N61Dv819wIDAQABo4Gf
MIGcMAkGA1UdEwQCMAAwHQYDVR0OBBYEFBv7hVE4UU/a1MlbuOFbQC1fujMZME4G
A1UdIwRHMEWAFB0JKM5u/EkMu3+1mHKTYRQeFHtXoSKkIDAeMRwwGgYDVQQDDBNS
YWJiaXRNUSBTVEFHSU5HIENBggkApO8a5O8U1n8wEwYDVR0lBAwwCgYIKwYBBQUH
AwIwCwYDVR0PBAQDAgeAMA0GCSqGSIb3DQEBCwUAA4IBAQAZKAJK9DRTkKH7F3vK
dXNjWduIPlhgZDCFf4rxQlPrIIoDxDmjdVmEzlJrjgCT+O/JT9l+pV+dBkDzCxc2
D4rRNuXgQ41DptWohb9iurDEhcvS+zxgc6M5EJP6KUlcGnqvSFr1b0dh9Rvi46Tx
0d52J30IaVMLS10k47fkJ87seIXxiMqRFUMK8Np1ChjTDvMwUMnMEm1mDTa6JVyI
7Cu4Uf7Q5PzyMP3PWHOkQECbC9LBXSACD9t+rPq2WcRlUe545jYHB1/AqQQU2BTf
NqPF9i7CVpwKJdfrBIXUcZLJAm1FGhXI8fl4CdERf7vwWlEfVg4mdTFA63+B/LY+
Cihx
-----END CERTIFICATE-----
